target datalayout = "e-m:e-p270:32:32-p271:32:32-p272:64:64-i64:64-i128:128-f80:128-n8:16:32:64-S128"
target triple = "x86_64-pc-linux-gnu"

%struct._address = type { i32, i32, ptr, ptr }
%struct._packet_info = type { ptr, ptr, i32, i32, %struct.nstime_t, %struct.nstime_t, %struct.nstime_t, i8, ptr, ptr, ptr, ptr, %struct._address, %struct._address, %struct._address, %struct._address, %struct._address, %struct._address, i32, ptr, i8, [3 x i8], %struct.anon.1, i32, i32, i32, i32, ptr, i8, ptr, ptr, i16, i16, i32, i32, i16, i32, i32, ptr, ptr, ptr, i8, i8, i16, i16, i16, i32, i16, i16, ptr, ptr, ptr, ptr, ptr, i32, i32 }
%struct.nstime_t = type { i64, i32 }
%struct.anon.1 = type { i8, [3 x i8] }
%struct._http_info_value_t = type { i32, ptr, i32, ptr, ptr, ptr, ptr, ptr, ptr }

@.str.5 = private unnamed_addr constant [3 x i8] c"OK\00", align 1
@st_str_reqs = internal global ptr @.str.517, align 8
@st_str_reqs_by_srv_addr = internal global ptr @.str.518, align 8
@st_node_reqs = internal global i32 -1, align 4
@st_str_reqs_by_http_host = internal global ptr @.str.515, align 8
@st_node_reqs_by_srv_addr = internal global i32 -1, align 4
@st_node_reqs_by_http_host = internal global i32 -1, align 4
@st_str_resps_by_srv_addr = internal global ptr @.str.519, align 8
@st_node_resps_by_srv_addr = internal global i32 -1, align 4
@.str.516 = private unnamed_addr constant [6 x i8] c"Error\00", align 1

; Function Attrs: null_pointer_is_valid sspstrong uwtable
define internal i32 @http_reqs_stats_tree_packet(ptr noundef %0, ptr noundef %1, ptr noundef %2, ptr noundef %3, i32 noundef %4) #0 {
  %6 = alloca i32, align 4
  %7 = alloca ptr, align 8
  %8 = alloca ptr, align 8
  %9 = alloca ptr, align 8
  %10 = alloca ptr, align 8
  %11 = alloca i32, align 4
  %12 = alloca ptr, align 8
  %13 = alloca i32, align 4
  %14 = alloca i32, align 4
  %15 = alloca i32, align 4
  %16 = alloca i32, align 4
  %17 = alloca ptr, align 8
  %18 = alloca i32, align 4
  store ptr %0, ptr %7, align 8
  store ptr %1, ptr %8, align 8
  store ptr %2, ptr %9, align 8
  store ptr %3, ptr %10, align 8
  store i32 %4, ptr %11, align 4
  call void @llvm.lifetime.start.p0(i64 8, ptr %12) #19
  %19 = load ptr, ptr %10, align 8
  store ptr %19, ptr %12, align 8
  call void @llvm.lifetime.start.p0(i64 4, ptr %13) #19
  call void @llvm.lifetime.start.p0(i64 4, ptr %14) #19
  call void @llvm.lifetime.start.p0(i64 4, ptr %15) #19
  call void @llvm.lifetime.start.p0(i64 4, ptr %16) #19
  %20 = load ptr, ptr %12, align 8
  %21 = getelementptr inbounds nuw %struct._http_info_value_t, ptr %20, i32 0, i32 2
  %22 = load i32, ptr %21, align 8
  store i32 %22, ptr %16, align 4
  call void @llvm.lifetime.start.p0(i64 8, ptr %17) #19
  %23 = load ptr, ptr %12, align 8
  %24 = getelementptr inbounds nuw %struct._http_info_value_t, ptr %23, i32 0, i32 1
  %25 = load ptr, ptr %24, align 8
  %26 = icmp ne ptr %25, null
  br i1 %26, label %27, label %69

27:                                               ; preds = %5
  %28 = load ptr, ptr %8, align 8
  %29 = getelementptr inbounds nuw %struct._packet_info, ptr %28, i32 0, i32 17
  %30 = call ptr @address_to_str(ptr noundef null, ptr noundef %29)
  store ptr %30, ptr %17, align 8
  %31 = load ptr, ptr %7, align 8
  %32 = load ptr, ptr @st_str_reqs, align 8
  %33 = call i32 @stats_tree_manip_node_int(i32 noundef 0, ptr noundef %31, ptr noundef %32, i32 noundef 0, i1 noundef zeroext false, i32 noundef 1)
  %34 = load ptr, ptr %7, align 8
  %35 = load ptr, ptr @st_str_reqs_by_srv_addr, align 8
  %36 = load i32, ptr @st_node_reqs, align 4
  %37 = call i32 @stats_tree_manip_node_int(i32 noundef 0, ptr noundef %34, ptr noundef %35, i32 noundef %36, i1 noundef zeroext true, i32 noundef 1)
  %38 = load ptr, ptr %7, align 8
  %39 = load ptr, ptr @st_str_reqs_by_http_host, align 8
  %40 = load i32, ptr @st_node_reqs, align 4
  %41 = call i32 @stats_tree_manip_node_int(i32 noundef 0, ptr noundef %38, ptr noundef %39, i32 noundef %40, i1 noundef zeroext true, i32 noundef 1)
  %42 = load ptr, ptr %7, align 8
  %43 = load ptr, ptr %17, align 8
  %44 = load i32, ptr @st_node_reqs_by_srv_addr, align 4
  %45 = call i32 @stats_tree_manip_node_int(i32 noundef 0, ptr noundef %42, ptr noundef %43, i32 noundef %44, i1 noundef zeroext true, i32 noundef 1)
  store i32 %45, ptr %14, align 4
  %46 = load ptr, ptr %12, align 8
  %47 = getelementptr inbounds nuw %struct._http_info_value_t, ptr %46, i32 0, i32 3
  %48 = load ptr, ptr %47, align 8
  %49 = icmp ne ptr %48, null
  br i1 %49, label %50, label %67

50:                                               ; preds = %27
  %51 = load ptr, ptr %7, align 8
  %52 = load ptr, ptr %12, align 8
  %53 = getelementptr inbounds nuw %struct._http_info_value_t, ptr %52, i32 0, i32 3
  %54 = load ptr, ptr %53, align 8
  %55 = load i32, ptr @st_node_reqs_by_http_host, align 4
  %56 = call i32 @stats_tree_manip_node_int(i32 noundef 0, ptr noundef %51, ptr noundef %54, i32 noundef %55, i1 noundef zeroext true, i32 noundef 1)
  store i32 %56, ptr %13, align 4
  %57 = load ptr, ptr %7, align 8
  %58 = load ptr, ptr %17, align 8
  %59 = load i32, ptr %13, align 4
  %60 = call i32 @stats_tree_manip_node_int(i32 noundef 0, ptr noundef %57, ptr noundef %58, i32 noundef %59, i1 noundef zeroext false, i32 noundef 1)
  %61 = load ptr, ptr %7, align 8
  %62 = load ptr, ptr %12, align 8
  %63 = getelementptr inbounds nuw %struct._http_info_value_t, ptr %62, i32 0, i32 3
  %64 = load ptr, ptr %63, align 8
  %65 = load i32, ptr %14, align 4
  %66 = call i32 @stats_tree_manip_node_int(i32 noundef 0, ptr noundef %61, ptr noundef %64, i32 noundef %65, i1 noundef zeroext false, i32 noundef 1)
  br label %67

67:                                               ; preds = %50, %27
  %68 = load ptr, ptr %17, align 8
  call void @wmem_free(ptr noundef null, ptr noundef %68)
  store i32 1, ptr %6, align 4
  store i32 1, ptr %18, align 4
  br label %100

69:                                               ; preds = %5
  %70 = load i32, ptr %16, align 4
  %71 = icmp ne i32 %70, 0
  br i1 %71, label %72, label %98

72:                                               ; preds = %69
  %73 = load ptr, ptr %8, align 8
  %74 = getelementptr inbounds nuw %struct._packet_info, ptr %73, i32 0, i32 16
  %75 = call ptr @address_to_str(ptr noundef null, ptr noundef %74)
  store ptr %75, ptr %17, align 8
  %76 = load ptr, ptr %7, align 8
  %77 = load ptr, ptr @st_str_resps_by_srv_addr, align 8
  %78 = call i32 @stats_tree_manip_node_int(i32 noundef 0, ptr noundef %76, ptr noundef %77, i32 noundef 0, i1 noundef zeroext false, i32 noundef 1)
  %79 = load ptr, ptr %7, align 8
  %80 = load ptr, ptr %17, align 8
  %81 = load i32, ptr @st_node_resps_by_srv_addr, align 4
  %82 = call i32 @stats_tree_manip_node_int(i32 noundef 0, ptr noundef %79, ptr noundef %80, i32 noundef %81, i1 noundef zeroext true, i32 noundef 1)
  store i32 %82, ptr %15, align 4
  %83 = load i32, ptr %16, align 4
  %84 = icmp sge i32 %83, 100
  br i1 %84, label %85, label %92

85:                                               ; preds = %72
  %86 = load i32, ptr %16, align 4
  %87 = icmp slt i32 %86, 400
  br i1 %87, label %88, label %92

88:                                               ; preds = %85
  %89 = load ptr, ptr %7, align 8
  %90 = load i32, ptr %15, align 4
  %91 = call i32 @stats_tree_manip_node_int(i32 noundef 0, ptr noundef %89, ptr noundef @.str.5, i32 noundef %90, i1 noundef zeroext false, i32 noundef 1)
  br label %96

92:                                               ; preds = %85, %72
  %93 = load ptr, ptr %7, align 8
  %94 = load i32, ptr %15, align 4
  %95 = call i32 @stats_tree_manip_node_int(i32 noundef 0, ptr noundef %93, ptr noundef @.str.516, i32 noundef %94, i1 noundef zeroext false, i32 noundef 1)
  br label %96

96:                                               ; preds = %92, %88
  %97 = load ptr, ptr %17, align 8
  call void @wmem_free(ptr noundef null, ptr noundef %97)
  store i32 1, ptr %6, align 4
  store i32 1, ptr %18, align 4
  br label %100

98:                                               ; preds = %69
  br label %99

99:                                               ; preds = %98
  store i32 0, ptr %6, align 4
  store i32 1, ptr %18, align 4
  br label %100

100:                                              ; preds = %99, %96, %67
  call void @llvm.lifetime.end.p0(i64 8, ptr %17) #19
  call void @llvm.lifetime.end.p0(i64 4, ptr %16) #19
  call void @llvm.lifetime.end.p0(i64 4, ptr %15) #19
  call void @llvm.lifetime.end.p0(i64 4, ptr %14) #19
  call void @llvm.lifetime.end.p0(i64 4, ptr %13) #19
  call void @llvm.lifetime.end.p0(i64 8, ptr %12) #19
  %101 = load i32, ptr %6, align 4
  ret i32 %101
}