; Function Attrs: null_pointer_is_valid sspstrong uwtable
define internal range(i32 0, 2) i32 @http_reqs_stats_tree_packet(ptr noundef %0, ptr noundef %1, ptr readnone captures(none) %2, ptr noundef readonly captures(none) %3, i32 %4) #0 {
  %6 = getelementptr inbounds nuw i8, ptr %3, i64 16
  %7 = load i32, ptr %6, align 8
  %8 = getelementptr inbounds nuw i8, ptr %3, i64 8
  %9 = load ptr, ptr %8, align 8
  %.not = icmp eq ptr %9, null
  br i1 %.not, label %28, label %10

10:                                               ; preds = %5
  %11 = getelementptr inbounds nuw i8, ptr %1, i64 232
  %12 = tail call ptr @address_to_str(ptr noundef null, ptr noundef nonnull %11)
  %13 = tail call i32 @stats_tree_manip_node_int(i32 noundef 0, ptr noundef %0, ptr noundef nonnull @.str.517, i32 noundef 0, i1 noundef zeroext false, i32 noundef 1)
  %14 = load i32, ptr @st_node_reqs, align 4
  %15 = tail call i32 @stats_tree_manip_node_int(i32 noundef 0, ptr noundef %0, ptr noundef nonnull @.str.518, i32 noundef %14, i1 noundef zeroext true, i32 noundef 1)
  %16 = load i32, ptr @st_node_reqs, align 4
  %17 = tail call i32 @stats_tree_manip_node_int(i32 noundef 0, ptr noundef %0, ptr noundef nonnull @.str.515, i32 noundef %16, i1 noundef zeroext true, i32 noundef 1)
  %18 = load i32, ptr @st_node_reqs_by_srv_addr, align 4
  %19 = tail call i32 @stats_tree_manip_node_int(i32 noundef 0, ptr noundef %0, ptr noundef %12, i32 noundef %18, i1 noundef zeroext true, i32 noundef 1)
  %20 = getelementptr inbounds nuw i8, ptr %3, i64 24
  %21 = load ptr, ptr %20, align 8
  %.not35 = icmp eq ptr %21, null
  br i1 %.not35, label %.sink.split, label %22

22:                                               ; preds = %10
  %23 = load i32, ptr @st_node_reqs_by_http_host, align 4
  %24 = tail call i32 @stats_tree_manip_node_int(i32 noundef 0, ptr noundef %0, ptr noundef nonnull %21, i32 noundef %23, i1 noundef zeroext true, i32 noundef 1)
  %25 = tail call i32 @stats_tree_manip_node_int(i32 noundef 0, ptr noundef %0, ptr noundef %12, i32 noundef %24, i1 noundef zeroext false, i32 noundef 1)
  %26 = load ptr, ptr %20, align 8
  %27 = tail call i32 @stats_tree_manip_node_int(i32 noundef 0, ptr noundef %0, ptr noundef %26, i32 noundef %19, i1 noundef zeroext false, i32 noundef 1)
  br label %.sink.split

28:                                               ; preds = %5
  %.not34 = icmp eq i32 %7, 0
  br i1 %.not34, label %37, label %29

29:                                               ; preds = %28
  %30 = getelementptr inbounds nuw i8, ptr %1, i64 208
  %31 = tail call ptr @address_to_str(ptr noundef null, ptr noundef nonnull %30)
  %32 = tail call i32 @stats_tree_manip_node_int(i32 noundef 0, ptr noundef %0, ptr noundef nonnull @.str.519, i32 noundef 0, i1 noundef zeroext false, i32 noundef 1)
  %33 = load i32, ptr @st_node_resps_by_srv_addr, align 4
  %34 = tail call i32 @stats_tree_manip_node_int(i32 noundef 0, ptr noundef %0, ptr noundef %31, i32 noundef %33, i1 noundef zeroext true, i32 noundef 1)
  %35 = add i32 %7, -100
  %or.cond = icmp ult i32 %35, 300
  %.str.5..str.516 = select i1 %or.cond, ptr @.str.5, ptr @.str.516
  %36 = tail call i32 @stats_tree_manip_node_int(i32 noundef 0, ptr noundef %0, ptr noundef nonnull %.str.5..str.516, i32 noundef %34, i1 noundef zeroext false, i32 noundef 1)
  br label %.sink.split

.sink.split:                                      ; preds = %10, %22, %29
  %.sink = phi ptr [ %31, %29 ], [ %12, %22 ], [ %12, %10 ]
  tail call void @wmem_free(ptr noundef null, ptr noundef %.sink)
  br label %37

37:                                               ; preds = %.sink.split, %28
  %.0 = phi i32 [ 0, %28 ], [ 1, %.sink.split ]
  ret i32 %.0
}